
hello2:     file format elf32-littlearm

Disassembly of section .init:

00008250 <_init>:
    8250:	e92d4010 	push	{r4, lr}
    8254:	eb00001d 	bl	82d0 <call_gmon_start>
    8258:	e8bd4010 	pop	{r4, lr}
    825c:	e12fff1e 	bx	lr
Disassembly of section .plt:

00008260 <.plt>:
    8260:	e52de004 	push	{lr}		; (str lr, [sp, #-4]!)
    8264:	e59fe004 	ldr	lr, [pc, #4]	; 8270 <_init+0x20>
    8268:	e08fe00e 	add	lr, pc, lr
    826c:	e5bef008 	ldr	pc, [lr, #8]!
    8270:	00008288 	.word	0x00008288
    8274:	e28fc600 	add	ip, pc, #0	; 0x0
    8278:	e28cca08 	add	ip, ip, #32768	; 0x8000
    827c:	e5bcf288 	ldr	pc, [ip, #648]!
    8280:	e28fc600 	add	ip, pc, #0	; 0x0
    8284:	e28cca08 	add	ip, ip, #32768	; 0x8000
    8288:	e5bcf280 	ldr	pc, [ip, #640]!
    828c:	e28fc600 	add	ip, pc, #0	; 0x0
    8290:	e28cca08 	add	ip, ip, #32768	; 0x8000
    8294:	e5bcf278 	ldr	pc, [ip, #632]!
Disassembly of section .text:

00008298 <_start>:
    8298:	e59fc024 	ldr	ip, [pc, #36]	; 82c4 <_start+0x2c>
    829c:	e3a0b000 	mov	fp, #0	; 0x0
    82a0:	e49d1004 	pop	{r1}		; (ldr r1, [sp], #4)
    82a4:	e1a0200d 	mov	r2, sp
    82a8:	e52d2004 	push	{r2}		; (str r2, [sp, #-4]!)
    82ac:	e52d0004 	push	{r0}		; (str r0, [sp, #-4]!)
    82b0:	e59f0010 	ldr	r0, [pc, #16]	; 82c8 <_start+0x30>
    82b4:	e59f3010 	ldr	r3, [pc, #16]	; 82cc <_start+0x34>
    82b8:	e52dc004 	push	{ip}		; (str ip, [sp, #-4]!)
    82bc:	ebffffef 	bl	8280 <_init+0x30>
    82c0:	ebffffeb 	bl	8274 <_init+0x24>
    82c4:	00008370 	.word	0x00008370
    82c8:	0000834c 	.word	0x0000834c
    82cc:	00008374 	.word	0x00008374

000082d0 <call_gmon_start>:
    82d0:	e59f301c 	ldr	r3, [pc, #28]	; 82f4 <call_gmon_start+0x24>
    82d4:	e59f201c 	ldr	r2, [pc, #28]	; 82f8 <call_gmon_start+0x28>
    82d8:	e08f3003 	add	r3, pc, r3
    82dc:	e7931002 	ldr	r1, [r3, r2]
    82e0:	e3510000 	cmp	r1, #0	; 0x0
    82e4:	e92d4010 	push	{r4, lr}
    82e8:	1bffffe7 	blne	828c <_init+0x3c>
    82ec:	e8bd4010 	pop	{r4, lr}
    82f0:	e12fff1e 	bx	lr
    82f4:	00008218 	.word	0x00008218
    82f8:	00000018 	.word	0x00000018

000082fc <__do_global_dtors_aux>:
    82fc:	e59f2010 	ldr	r2, [pc, #16]	; 8314 <__do_global_dtors_aux+0x18>
    8300:	e5d23000 	ldrb	r3, [r2]
    8304:	e3530000 	cmp	r3, #0	; 0x0
    8308:	02833001 	addeq	r3, r3, #1	; 0x1
    830c:	05c23000 	strbeq	r3, [r2]
    8310:	e12fff1e 	bx	lr
    8314:	0001052a 	.word	0x0001052a

00008318 <frame_dummy>:
    8318:	e59f0024 	ldr	r0, [pc, #36]	; 8344 <frame_dummy+0x2c>
    831c:	e5903000 	ldr	r3, [r0]
    8320:	e3530000 	cmp	r3, #0	; 0x0
    8324:	e92d4010 	push	{r4, lr}
    8328:	0a000003 	beq	833c <frame_dummy+0x24>
    832c:	e59f3014 	ldr	r3, [pc, #20]	; 8348 <frame_dummy+0x30>
    8330:	e3530000 	cmp	r3, #0	; 0x0
    8334:	11a0e00f 	movne	lr, pc
    8338:	112fff13 	bxne	r3
    833c:	e8bd4010 	pop	{r4, lr}
    8340:	e12fff1e 	bx	lr
    8344:	0001040c 	.word	0x0001040c
    8348:	00000000 	.word	0x00000000

0000834c <main>:
    834c:	e3a00001 	mov	r0, #1	; 0x1
    8350:	e59f1014 	ldr	r1, [pc, #20]	; 836c <main+0x20>
    8354:	e3a0200e 	mov	r2, #14	; 0xe
    8358:	e3a07004 	mov	r7, #4	; 0x4
    835c:	ef000000 	svc	0x00000000
    8360:	e3a00000 	mov	r0, #0	; 0x0
    8364:	e3a07001 	mov	r7, #1	; 0x1
    8368:	ef000000 	svc	0x00000000
    836c:	0001051c 	.word	0x0001051c

00008370 <__libc_csu_fini>:
    8370:	e12fff1e 	bx	lr

00008374 <__libc_csu_init>:
    8374:	e92d47f0 	push	{r4, r5, r6, r7, r8, r9, sl, lr}
    8378:	e1a08001 	mov	r8, r1
    837c:	e1a07002 	mov	r7, r2
    8380:	e1a0a000 	mov	sl, r0
    8384:	ebffffb1 	bl	8250 <_init>
    8388:	e59f104c 	ldr	r1, [pc, #76]	; 83dc <__libc_csu_init+0x68>
    838c:	e59f304c 	ldr	r3, [pc, #76]	; 83e0 <__libc_csu_init+0x6c>
    8390:	e59f204c 	ldr	r2, [pc, #76]	; 83e4 <__libc_csu_init+0x70>
    8394:	e0613003 	rsb	r3, r1, r3
    8398:	e08f2002 	add	r2, pc, r2
    839c:	e1b05143 	asrs	r5, r3, #2
    83a0:	e0822001 	add	r2, r2, r1
    83a4:	0a00000a 	beq	83d4 <__libc_csu_init+0x60>
    83a8:	e1a06002 	mov	r6, r2
    83ac:	e3a04000 	mov	r4, #0	; 0x0
    83b0:	e1a0000a 	mov	r0, sl
    83b4:	e1a01008 	mov	r1, r8
    83b8:	e1a02007 	mov	r2, r7
    83bc:	e796c104 	ldr	ip, [r6, r4, lsl #2]
    83c0:	e1a0e00f 	mov	lr, pc
    83c4:	e12fff1c 	bx	ip
    83c8:	e2844001 	add	r4, r4, #1	; 0x1
    83cc:	e1540005 	cmp	r4, r5
    83d0:	3afffff6 	bcc	83b0 <__libc_csu_init+0x3c>
    83d4:	e8bd47f0 	pop	{r4, r5, r6, r7, r8, r9, sl, lr}
    83d8:	e12fff1e 	bx	lr
    83dc:	ffffff0c 	.word	0xffffff0c
    83e0:	ffffff10 	.word	0xffffff10
    83e4:	00008158 	.word	0x00008158
Disassembly of section .fini:

000083e8 <_fini>:
    83e8:	e92d4010 	push	{r4, lr}
    83ec:	e8bd4010 	pop	{r4, lr}
    83f0:	e12fff1e 	bx	lr